target datalayout = "e-m:e-p270:32:32-p271:32:32-p272:64:64-i64:64-i128:128-f80:128-n8:16:32:64-S128"
target triple = "x86_64-pc-linux-gnu"

%struct.VC2TransformContext = type { ptr, i32, [7 x ptr] }

; Function Attrs: alwaysinline nounwind uwtable
define internal void @deinterleave(ptr noundef %0, i64 noundef %1, i32 noundef %2, i32 noundef %3, ptr noundef %4) #4 {
  %6 = alloca ptr, align 8
  %7 = alloca i64, align 8
  %8 = alloca i32, align 4
  %9 = alloca i32, align 4
  %10 = alloca ptr, align 8
  %11 = alloca i32, align 4
  %12 = alloca i32, align 4
  %13 = alloca i64, align 8
  %14 = alloca ptr, align 8
  %15 = alloca ptr, align 8
  %16 = alloca ptr, align 8
  store ptr %0, ptr %6, align 8, !tbaa !16
  store i64 %1, ptr %7, align 8, !tbaa !17
  store i32 %2, ptr %8, align 4, !tbaa !9
  store i32 %3, ptr %9, align 4, !tbaa !9
  store ptr %4, ptr %10, align 8, !tbaa !16
  call void @llvm.lifetime.start.p0(i64 4, ptr %11) #5
  call void @llvm.lifetime.start.p0(i64 4, ptr %12) #5
  call void @llvm.lifetime.start.p0(i64 8, ptr %13) #5
  %17 = load i32, ptr %8, align 4, !tbaa !9
  %18 = shl i32 %17, 1
  %19 = sext i32 %18 to i64
  store i64 %19, ptr %13, align 8, !tbaa !17
  call void @llvm.lifetime.start.p0(i64 8, ptr %14) #5
  %20 = load ptr, ptr %6, align 8, !tbaa !16
  %21 = load i32, ptr %8, align 4, !tbaa !9
  %22 = sext i32 %21 to i64
  %23 = getelementptr inbounds i32, ptr %20, i64 %22
  store ptr %23, ptr %14, align 8, !tbaa !16
  call void @llvm.lifetime.start.p0(i64 8, ptr %15) #5
  %24 = load ptr, ptr %6, align 8, !tbaa !16
  %25 = load i32, ptr %9, align 4, !tbaa !9
  %26 = sext i32 %25 to i64
  %27 = load i64, ptr %7, align 8, !tbaa !17
  %28 = mul nsw i64 %26, %27
  %29 = getelementptr inbounds i32, ptr %24, i64 %28
  store ptr %29, ptr %15, align 8, !tbaa !16
  call void @llvm.lifetime.start.p0(i64 8, ptr %16) #5
  %30 = load ptr, ptr %15, align 8, !tbaa !16
  %31 = load i32, ptr %8, align 4, !tbaa !9
  %32 = sext i32 %31 to i64
  %33 = getelementptr inbounds i32, ptr %30, i64 %32
  store ptr %33, ptr %16, align 8, !tbaa !16
  store i32 0, ptr %12, align 4, !tbaa !9
  br label %34

34:                                               ; preds = %110, %5
  %35 = load i32, ptr %12, align 4, !tbaa !9
  %36 = load i32, ptr %9, align 4, !tbaa !9
  %37 = icmp slt i32 %35, %36
  br i1 %37, label %38, label %113

38:                                               ; preds = %34
  store i32 0, ptr %11, align 4, !tbaa !9
  br label %39

39:                                               ; preds = %90, %38
  %40 = load i32, ptr %11, align 4, !tbaa !9
  %41 = load i32, ptr %8, align 4, !tbaa !9
  %42 = icmp slt i32 %40, %41
  br i1 %42, label %43, label %93

43:                                               ; preds = %39
  %44 = load ptr, ptr %10, align 8, !tbaa !16
  %45 = load i32, ptr %11, align 4, !tbaa !9
  %46 = shl i32 %45, 1
  %47 = sext i32 %46 to i64
  %48 = getelementptr inbounds i32, ptr %44, i64 %47
  %49 = load i32, ptr %48, align 4, !tbaa !9
  %50 = load ptr, ptr %6, align 8, !tbaa !16
  %51 = load i32, ptr %11, align 4, !tbaa !9
  %52 = sext i32 %51 to i64
  %53 = getelementptr inbounds i32, ptr %50, i64 %52
  store i32 %49, ptr %53, align 4, !tbaa !9
  %54 = load ptr, ptr %10, align 8, !tbaa !16
  %55 = load i32, ptr %11, align 4, !tbaa !9
  %56 = shl i32 %55, 1
  %57 = add nsw i32 %56, 1
  %58 = sext i32 %57 to i64
  %59 = getelementptr inbounds i32, ptr %54, i64 %58
  %60 = load i32, ptr %59, align 4, !tbaa !9
  %61 = load ptr, ptr %14, align 8, !tbaa !16
  %62 = load i32, ptr %11, align 4, !tbaa !9
  %63 = sext i32 %62 to i64
  %64 = getelementptr inbounds i32, ptr %61, i64 %63
  store i32 %60, ptr %64, align 4, !tbaa !9
  %65 = load ptr, ptr %10, align 8, !tbaa !16
  %66 = load i32, ptr %11, align 4, !tbaa !9
  %67 = shl i32 %66, 1
  %68 = sext i32 %67 to i64
  %69 = load i64, ptr %13, align 8, !tbaa !17
  %70 = add nsw i64 %68, %69
  %71 = getelementptr inbounds i32, ptr %65, i64 %70
  %72 = load i32, ptr %71, align 4, !tbaa !9
  %73 = load ptr, ptr %15, align 8, !tbaa !16
  %74 = load i32, ptr %11, align 4, !tbaa !9
  %75 = sext i32 %74 to i64
  %76 = getelementptr inbounds i32, ptr %73, i64 %75
  store i32 %72, ptr %76, align 4, !tbaa !9
  %77 = load ptr, ptr %10, align 8, !tbaa !16
  %78 = load i32, ptr %11, align 4, !tbaa !9
  %79 = shl i32 %78, 1
  %80 = sext i32 %79 to i64
  %81 = load i64, ptr %13, align 8, !tbaa !17
  %82 = add nsw i64 %80, %81
  %83 = add nsw i64 %82, 1
  %84 = getelementptr inbounds i32, ptr %77, i64 %83
  %85 = load i32, ptr %84, align 4, !tbaa !9
  %86 = load ptr, ptr %16, align 8, !tbaa !16
  %87 = load i32, ptr %11, align 4, !tbaa !9
  %88 = sext i32 %87 to i64
  %89 = getelementptr inbounds i32, ptr %86, i64 %88
  store i32 %85, ptr %89, align 4, !tbaa !9
  br label %90

90:                                               ; preds = %43
  %91 = load i32, ptr %11, align 4, !tbaa !9
  %92 = add nsw i32 %91, 1
  store i32 %92, ptr %11, align 4, !tbaa !9
  br label %39, !llvm.loop !46

93:                                               ; preds = %39
  %94 = load i64, ptr %13, align 8, !tbaa !17
  %95 = shl i64 %94, 1
  %96 = load ptr, ptr %10, align 8, !tbaa !16
  %97 = getelementptr inbounds i32, ptr %96, i64 %95
  store ptr %97, ptr %10, align 8, !tbaa !16
  %98 = load i64, ptr %7, align 8, !tbaa !17
  %99 = load ptr, ptr %6, align 8, !tbaa !16
  %100 = getelementptr inbounds i32, ptr %99, i64 %98
  store ptr %100, ptr %6, align 8, !tbaa !16
  %101 = load i64, ptr %7, align 8, !tbaa !17
  %102 = load ptr, ptr %15, align 8, !tbaa !16
  %103 = getelementptr inbounds i32, ptr %102, i64 %101
  store ptr %103, ptr %15, align 8, !tbaa !16
  %104 = load i64, ptr %7, align 8, !tbaa !17
  %105 = load ptr, ptr %14, align 8, !tbaa !16
  %106 = getelementptr inbounds i32, ptr %105, i64 %104
  store ptr %106, ptr %14, align 8, !tbaa !16
  %107 = load i64, ptr %7, align 8, !tbaa !17
  %108 = load ptr, ptr %16, align 8, !tbaa !16
  %109 = getelementptr inbounds i32, ptr %108, i64 %107
  store ptr %109, ptr %16, align 8, !tbaa !16
  br label %110

110:                                              ; preds = %93
  %111 = load i32, ptr %12, align 4, !tbaa !9
  %112 = add nsw i32 %111, 1
  store i32 %112, ptr %12, align 4, !tbaa !9
  br label %34, !llvm.loop !47

113:                                              ; preds = %34
  call void @llvm.lifetime.end.p0(i64 8, ptr %16) #5
  call void @llvm.lifetime.end.p0(i64 8, ptr %15) #5
  call void @llvm.lifetime.end.p0(i64 8, ptr %14) #5
  call void @llvm.lifetime.end.p0(i64 8, ptr %13) #5
  call void @llvm.lifetime.end.p0(i64 4, ptr %12) #5
  call void @llvm.lifetime.end.p0(i64 4, ptr %11) #5
  ret void
}

; Function Attrs: alwaysinline nounwind uwtable
define internal void @dwt_haar(ptr noundef %0, ptr noundef %1, i64 noundef %2, i32 noundef %3, i32 noundef %4, i32 noundef %5) #4 {
  %7 = alloca ptr, align 8
  %8 = alloca ptr, align 8
  %9 = alloca i64, align 8
  %10 = alloca i32, align 4
  %11 = alloca i32, align 4
  %12 = alloca i32, align 4
  %13 = alloca i32, align 4
  %14 = alloca i32, align 4
  %15 = alloca ptr, align 8
  %16 = alloca ptr, align 8
  %17 = alloca ptr, align 8
  %18 = alloca i64, align 8
  %19 = alloca i64, align 8
  store ptr %0, ptr %7, align 8, !tbaa !4
  store ptr %1, ptr %8, align 8, !tbaa !16
  store i64 %2, ptr %9, align 8, !tbaa !17
  store i32 %3, ptr %10, align 4, !tbaa !9
  store i32 %4, ptr %11, align 4, !tbaa !9
  store i32 %5, ptr %12, align 4, !tbaa !9
  call void @llvm.lifetime.start.p0(i64 4, ptr %13) #5
  call void @llvm.lifetime.start.p0(i64 4, ptr %14) #5
  call void @llvm.lifetime.start.p0(i64 8, ptr %15) #5
  %20 = load ptr, ptr %7, align 8, !tbaa !4
  %21 = getelementptr inbounds nuw %struct.VC2TransformContext, ptr %20, i32 0, i32 0
  %22 = load ptr, ptr %21, align 8, !tbaa !12
  store ptr %22, ptr %15, align 8, !tbaa !16
  call void @llvm.lifetime.start.p0(i64 8, ptr %16) #5
  %23 = load ptr, ptr %15, align 8, !tbaa !16
  store ptr %23, ptr %16, align 8, !tbaa !16
  call void @llvm.lifetime.start.p0(i64 8, ptr %17) #5
  %24 = load ptr, ptr %8, align 8, !tbaa !16
  store ptr %24, ptr %17, align 8, !tbaa !16
  call void @llvm.lifetime.start.p0(i64 8, ptr %18) #5
  %25 = load i32, ptr %10, align 4, !tbaa !9
  %26 = shl i32 %25, 1
  %27 = sext i32 %26 to i64
  store i64 %27, ptr %18, align 8, !tbaa !17
  call void @llvm.lifetime.start.p0(i64 8, ptr %19) #5
  %28 = load i32, ptr %11, align 4, !tbaa !9
  %29 = shl i32 %28, 1
  %30 = sext i32 %29 to i64
  store i64 %30, ptr %19, align 8, !tbaa !17
  store i32 0, ptr %14, align 4, !tbaa !9
  br label %31

31:                                               ; preds = %119, %6
  %32 = load i32, ptr %14, align 4, !tbaa !9
  %33 = sext i32 %32 to i64
  %34 = load i64, ptr %19, align 8, !tbaa !17
  %35 = icmp slt i64 %33, %34
  br i1 %35, label %36, label %122

36:                                               ; preds = %31
  store i32 0, ptr %13, align 4, !tbaa !9
  br label %37

37:                                               ; preds = %115, %36
  %38 = load i32, ptr %13, align 4, !tbaa !9
  %39 = sext i32 %38 to i64
  %40 = load i64, ptr %18, align 8, !tbaa !17
  %41 = icmp slt i64 %39, %40
  br i1 %41, label %42, label %118

42:                                               ; preds = %37
  %43 = load ptr, ptr %17, align 8, !tbaa !16
  %44 = load i32, ptr %14, align 4, !tbaa !9
  %45 = sext i32 %44 to i64
  %46 = load i64, ptr %9, align 8, !tbaa !17
  %47 = mul nsw i64 %45, %46
  %48 = load i32, ptr %13, align 4, !tbaa !9
  %49 = sext i32 %48 to i64
  %50 = add nsw i64 %47, %49
  %51 = add nsw i64 %50, 1
  %52 = getelementptr inbounds i32, ptr %43, i64 %51
  %53 = load i32, ptr %52, align 4, !tbaa !9
  %54 = load ptr, ptr %17, align 8, !tbaa !16
  %55 = load i32, ptr %14, align 4, !tbaa !9
  %56 = sext i32 %55 to i64
  %57 = load i64, ptr %9, align 8, !tbaa !17
  %58 = mul nsw i64 %56, %57
  %59 = load i32, ptr %13, align 4, !tbaa !9
  %60 = sext i32 %59 to i64
  %61 = add nsw i64 %58, %60
  %62 = getelementptr inbounds i32, ptr %54, i64 %61
  %63 = load i32, ptr %62, align 4, !tbaa !9
  %64 = sub nsw i32 %53, %63
  %65 = load i32, ptr %12, align 4, !tbaa !9
  %66 = shl i32 1, %65
  %67 = mul nsw i32 %64, %66
  %68 = load ptr, ptr %16, align 8, !tbaa !16
  %69 = load i32, ptr %14, align 4, !tbaa !9
  %70 = sext i32 %69 to i64
  %71 = load i64, ptr %18, align 8, !tbaa !17
  %72 = mul nsw i64 %70, %71
  %73 = load i32, ptr %13, align 4, !tbaa !9
  %74 = sext i32 %73 to i64
  %75 = add nsw i64 %72, %74
  %76 = add nsw i64 %75, 1
  %77 = getelementptr inbounds i32, ptr %68, i64 %76
  store i32 %67, ptr %77, align 4, !tbaa !9
  %78 = load ptr, ptr %17, align 8, !tbaa !16
  %79 = load i32, ptr %14, align 4, !tbaa !9
  %80 = sext i32 %79 to i64
  %81 = load i64, ptr %9, align 8, !tbaa !17
  %82 = mul nsw i64 %80, %81
  %83 = load i32, ptr %13, align 4, !tbaa !9
  %84 = sext i32 %83 to i64
  %85 = add nsw i64 %82, %84
  %86 = add nsw i64 %85, 0
  %87 = getelementptr inbounds i32, ptr %78, i64 %86
  %88 = load i32, ptr %87, align 4, !tbaa !9
  %89 = load i32, ptr %12, align 4, !tbaa !9
  %90 = shl i32 1, %89
  %91 = mul nsw i32 %88, %90
  %92 = load ptr, ptr %16, align 8, !tbaa !16
  %93 = load i32, ptr %14, align 4, !tbaa !9
  %94 = sext i32 %93 to i64
  %95 = load i64, ptr %18, align 8, !tbaa !17
  %96 = mul nsw i64 %94, %95
  %97 = load i32, ptr %13, align 4, !tbaa !9
  %98 = sext i32 %97 to i64
  %99 = add nsw i64 %96, %98
  %100 = add nsw i64 %99, 1
  %101 = getelementptr inbounds i32, ptr %92, i64 %100
  %102 = load i32, ptr %101, align 4, !tbaa !9
  %103 = add nsw i32 %102, 1
  %104 = ashr i32 %103, 1
  %105 = add nsw i32 %91, %104
  %106 = load ptr, ptr %16, align 8, !tbaa !16
  %107 = load i32, ptr %14, align 4, !tbaa !9
  %108 = sext i32 %107 to i64
  %109 = load i64, ptr %18, align 8, !tbaa !17
  %110 = mul nsw i64 %108, %109
  %111 = load i32, ptr %13, align 4, !tbaa !9
  %112 = sext i32 %111 to i64
  %113 = add nsw i64 %110, %112
  %114 = getelementptr inbounds i32, ptr %106, i64 %113
  store i32 %105, ptr %114, align 4, !tbaa !9
  br label %115

115:                                              ; preds = %42
  %116 = load i32, ptr %13, align 4, !tbaa !9
  %117 = add nsw i32 %116, 2
  store i32 %117, ptr %13, align 4, !tbaa !9
  br label %37, !llvm.loop !48

118:                                              ; preds = %37
  br label %119

119:                                              ; preds = %118
  %120 = load i32, ptr %14, align 4, !tbaa !9
  %121 = add nsw i32 %120, 1
  store i32 %121, ptr %14, align 4, !tbaa !9
  br label %31, !llvm.loop !49

122:                                              ; preds = %31
  store i32 0, ptr %13, align 4, !tbaa !9
  br label %123

123:                                              ; preds = %204, %122
  %124 = load i32, ptr %13, align 4, !tbaa !9
  %125 = sext i32 %124 to i64
  %126 = load i64, ptr %18, align 8, !tbaa !17
  %127 = icmp slt i64 %125, %126
  br i1 %127, label %128, label %207

128:                                              ; preds = %123
  store i32 0, ptr %14, align 4, !tbaa !9
  br label %129

129:                                              ; preds = %200, %128
  %130 = load i32, ptr %14, align 4, !tbaa !9
  %131 = sext i32 %130 to i64
  %132 = load i64, ptr %19, align 8, !tbaa !17
  %133 = icmp slt i64 %131, %132
  br i1 %133, label %134, label %203

134:                                              ; preds = %129
  %135 = load ptr, ptr %16, align 8, !tbaa !16
  %136 = load i32, ptr %14, align 4, !tbaa !9
  %137 = add nsw i32 %136, 1
  %138 = sext i32 %137 to i64
  %139 = load i64, ptr %18, align 8, !tbaa !17
  %140 = mul nsw i64 %138, %139
  %141 = load i32, ptr %13, align 4, !tbaa !9
  %142 = sext i32 %141 to i64
  %143 = add nsw i64 %140, %142
  %144 = getelementptr inbounds i32, ptr %135, i64 %143
  %145 = load i32, ptr %144, align 4, !tbaa !9
  %146 = load ptr, ptr %16, align 8, !tbaa !16
  %147 = load i32, ptr %14, align 4, !tbaa !9
  %148 = sext i32 %147 to i64
  %149 = load i64, ptr %18, align 8, !tbaa !17
  %150 = mul nsw i64 %148, %149
  %151 = load i32, ptr %13, align 4, !tbaa !9
  %152 = sext i32 %151 to i64
  %153 = add nsw i64 %150, %152
  %154 = getelementptr inbounds i32, ptr %146, i64 %153
  %155 = load i32, ptr %154, align 4, !tbaa !9
  %156 = sub nsw i32 %145, %155
  %157 = load ptr, ptr %16, align 8, !tbaa !16
  %158 = load i32, ptr %14, align 4, !tbaa !9
  %159 = add nsw i32 %158, 1
  %160 = sext i32 %159 to i64
  %161 = load i64, ptr %18, align 8, !tbaa !17
  %162 = mul nsw i64 %160, %161
  %163 = load i32, ptr %13, align 4, !tbaa !9
  %164 = sext i32 %163 to i64
  %165 = add nsw i64 %162, %164
  %166 = getelementptr inbounds i32, ptr %157, i64 %165
  store i32 %156, ptr %166, align 4, !tbaa !9
  %167 = load ptr, ptr %16, align 8, !tbaa !16
  %168 = load i32, ptr %14, align 4, !tbaa !9
  %169 = sext i32 %168 to i64
  %170 = load i64, ptr %18, align 8, !tbaa !17
  %171 = mul nsw i64 %169, %170
  %172 = load i32, ptr %13, align 4, !tbaa !9
  %173 = sext i32 %172 to i64
  %174 = add nsw i64 %171, %173
  %175 = getelementptr inbounds i32, ptr %167, i64 %174
  %176 = load i32, ptr %175, align 4, !tbaa !9
  %177 = load ptr, ptr %16, align 8, !tbaa !16
  %178 = load i32, ptr %14, align 4, !tbaa !9
  %179 = add nsw i32 %178, 1
  %180 = sext i32 %179 to i64
  %181 = load i64, ptr %18, align 8, !tbaa !17
  %182 = mul nsw i64 %180, %181
  %183 = load i32, ptr %13, align 4, !tbaa !9
  %184 = sext i32 %183 to i64
  %185 = add nsw i64 %182, %184
  %186 = getelementptr inbounds i32, ptr %177, i64 %185
  %187 = load i32, ptr %186, align 4, !tbaa !9
  %188 = add nsw i32 %187, 1
  %189 = ashr i32 %188, 1
  %190 = add nsw i32 %176, %189
  %191 = load ptr, ptr %16, align 8, !tbaa !16
  %192 = load i32, ptr %14, align 4, !tbaa !9
  %193 = sext i32 %192 to i64
  %194 = load i64, ptr %18, align 8, !tbaa !17
  %195 = mul nsw i64 %193, %194
  %196 = load i32, ptr %13, align 4, !tbaa !9
  %197 = sext i32 %196 to i64
  %198 = add nsw i64 %195, %197
  %199 = getelementptr inbounds i32, ptr %191, i64 %198
  store i32 %190, ptr %199, align 4, !tbaa !9
  br label %200

200:                                              ; preds = %134
  %201 = load i32, ptr %14, align 4, !tbaa !9
  %202 = add nsw i32 %201, 2
  store i32 %202, ptr %14, align 4, !tbaa !9
  br label %129, !llvm.loop !50

203:                                              ; preds = %129
  br label %204

204:                                              ; preds = %203
  %205 = load i32, ptr %13, align 4, !tbaa !9
  %206 = add nsw i32 %205, 1
  store i32 %206, ptr %13, align 4, !tbaa !9
  br label %123, !llvm.loop !51

207:                                              ; preds = %123
  %208 = load ptr, ptr %8, align 8, !tbaa !16
  %209 = load i64, ptr %9, align 8, !tbaa !17
  %210 = load i32, ptr %10, align 4, !tbaa !9
  %211 = load i32, ptr %11, align 4, !tbaa !9
  %212 = load ptr, ptr %15, align 8, !tbaa !16
  call void @deinterleave(ptr noundef %208, i64 noundef %209, i32 noundef %210, i32 noundef %211, ptr noundef %212)
  call void @llvm.lifetime.end.p0(i64 8, ptr %19) #5
  call void @llvm.lifetime.end.p0(i64 8, ptr %18) #5
  call void @llvm.lifetime.end.p0(i64 8, ptr %17) #5
  call void @llvm.lifetime.end.p0(i64 8, ptr %16) #5
  call void @llvm.lifetime.end.p0(i64 8, ptr %15) #5
  call void @llvm.lifetime.end.p0(i64 4, ptr %14) #5
  call void @llvm.lifetime.end.p0(i64 4, ptr %13) #5
  ret void
}

; Function Attrs: nounwind uwtable
define internal void @vc2_subband_dwt_haar(ptr noundef %0, ptr noundef %1, i64 noundef %2, i32 noundef %3, i32 noundef %4) #1 {
  %6 = alloca ptr, align 8
  %7 = alloca ptr, align 8
  %8 = alloca i64, align 8
  %9 = alloca i32, align 4
  %10 = alloca i32, align 4
  store ptr %0, ptr %6, align 8, !tbaa !4
  store ptr %1, ptr %7, align 8, !tbaa !16
  store i64 %2, ptr %8, align 8, !tbaa !17
  store i32 %3, ptr %9, align 4, !tbaa !9
  store i32 %4, ptr %10, align 4, !tbaa !9
  %11 = load ptr, ptr %6, align 8, !tbaa !4
  %12 = load ptr, ptr %7, align 8, !tbaa !16
  %13 = load i64, ptr %8, align 8, !tbaa !17
  %14 = load i32, ptr %9, align 4, !tbaa !9
  %15 = load i32, ptr %10, align 4, !tbaa !9
  call void @dwt_haar(ptr noundef %11, ptr noundef %12, i64 noundef %13, i32 noundef %14, i32 noundef %15, i32 noundef 0)
  ret void
}