; Function Attrs: nofree norecurse nosync nounwind memory(readwrite, inaccessiblemem: none) uwtable
define internal void @vc2_subband_dwt_haar(ptr noundef readonly captures(none) %0, ptr noundef captures(none) %1, i64 noundef %2, i32 noundef %3, i32 noundef %4) #1 {
  %6 = load ptr, ptr %0, align 8, !tbaa !8
  %7 = shl i32 %3, 1
  %8 = sext i32 %7 to i64
  %9 = shl i32 %4, 1
  %10 = icmp sgt i32 %9, 0
  %11 = icmp sgt i32 %7, 0
  %or.cond = and i1 %10, %11
  br i1 %or.cond, label %.preheader6.us.preheader, label %._crit_edge13

.preheader6.us.preheader:                         ; preds = %5
  %wide.trip.count = zext nneg i32 %9 to i64
  br label %.preheader6.us

.preheader6.us:                                   ; preds = %.preheader6.us.preheader, %._crit_edge.us
  %indvars.iv29 = phi i64 [ 0, %.preheader6.us.preheader ], [ %indvars.iv.next30, %._crit_edge.us ]
  %12 = mul nsw i64 %indvars.iv29, %2
  %13 = getelementptr i32, ptr %1, i64 %12
  %14 = mul nuw nsw i64 %indvars.iv29, %8
  %15 = getelementptr i32, ptr %6, i64 %14
  br label %16

16:                                               ; preds = %.preheader6.us, %16
  %indvars.iv = phi i64 [ 0, %.preheader6.us ], [ %indvars.iv.next, %16 ]
  %17 = getelementptr i32, ptr %13, i64 %indvars.iv
  %18 = getelementptr i8, ptr %17, i64 4
  %19 = load i32, ptr %18, align 4, !tbaa !13
  %20 = load i32, ptr %17, align 4, !tbaa !13
  %21 = sub nsw i32 %19, %20
  %22 = getelementptr i32, ptr %15, i64 %indvars.iv
  %23 = getelementptr i8, ptr %22, i64 4
  store i32 %21, ptr %23, align 4, !tbaa !13
  %24 = load i32, ptr %17, align 4, !tbaa !13
  %25 = add nsw i32 %21, 1
  %26 = ashr i32 %25, 1
  %27 = add nsw i32 %26, %24
  store i32 %27, ptr %22, align 4, !tbaa !13
  %indvars.iv.next = add nuw nsw i64 %indvars.iv, 2
  %28 = icmp slt i64 %indvars.iv.next, %8
  br i1 %28, label %16, label %._crit_edge.us, !llvm.loop !43

._crit_edge.us:                                   ; preds = %16
  %indvars.iv.next30 = add nuw nsw i64 %indvars.iv29, 1
  %exitcond.not = icmp eq i64 %indvars.iv.next30, %wide.trip.count
  br i1 %exitcond.not, label %.preheader5, label %.preheader6.us, !llvm.loop !44

.preheader5:                                      ; preds = %._crit_edge.us
  br i1 %10, label %.preheader4.us.preheader, label %._crit_edge13

.preheader4.us.preheader:                         ; preds = %.preheader5
  %29 = zext nneg i32 %9 to i64
  %wide.trip.count38 = zext nneg i32 %7 to i64
  br label %.preheader4.us

.preheader4.us:                                   ; preds = %.preheader4.us.preheader, %._crit_edge.us14
  %indvars.iv35 = phi i64 [ 0, %.preheader4.us.preheader ], [ %indvars.iv.next36, %._crit_edge.us14 ]
  %invariant.gep.us = getelementptr i32, ptr %6, i64 %indvars.iv35
  br label %30

30:                                               ; preds = %.preheader4.us, %30
  %indvars.iv32 = phi i64 [ 0, %.preheader4.us ], [ %indvars.iv.next33, %30 ]
  %31 = or disjoint i64 %indvars.iv32, 1
  %32 = mul nuw nsw i64 %31, %8
  %gep.us = getelementptr i32, ptr %invariant.gep.us, i64 %32
  %33 = load i32, ptr %gep.us, align 4, !tbaa !13
  %34 = mul nuw nsw i64 %indvars.iv32, %8
  %gep10.us = getelementptr i32, ptr %invariant.gep.us, i64 %34
  %35 = load i32, ptr %gep10.us, align 4, !tbaa !13
  %36 = sub nsw i32 %33, %35
  store i32 %36, ptr %gep.us, align 4, !tbaa !13
  %37 = load i32, ptr %gep10.us, align 4, !tbaa !13
  %38 = add nsw i32 %36, 1
  %39 = ashr i32 %38, 1
  %40 = add nsw i32 %39, %37
  store i32 %40, ptr %gep10.us, align 4, !tbaa !13
  %indvars.iv.next33 = add nuw nsw i64 %indvars.iv32, 2
  %41 = icmp samesign ult i64 %indvars.iv.next33, %29
  br i1 %41, label %30, label %._crit_edge.us14, !llvm.loop !45

._crit_edge.us14:                                 ; preds = %30
  %indvars.iv.next36 = add nuw nsw i64 %indvars.iv35, 1
  %exitcond39.not = icmp eq i64 %indvars.iv.next36, %wide.trip.count38
  br i1 %exitcond39.not, label %._crit_edge13, label %.preheader4.us, !llvm.loop !46

._crit_edge13:                                    ; preds = %._crit_edge.us14, %.preheader5, %5
  %42 = icmp sgt i32 %4, 0
  br i1 %42, label %.preheader.lr.ph, label %dwt_haar.exit

.preheader.lr.ph:                                 ; preds = %._crit_edge13
  %43 = icmp sgt i32 %3, 0
  %.idx.i.i = shl nsw i64 %8, 3
  br i1 %43, label %.preheader.us.preheader, label %dwt_haar.exit

.preheader.us.preheader:                          ; preds = %.preheader.lr.ph
  %44 = zext nneg i32 %3 to i64
  %45 = getelementptr inbounds nuw i32, ptr %1, i64 %44
  %46 = zext nneg i32 %4 to i64
  %47 = mul nsw i64 %2, %46
  %48 = getelementptr inbounds i32, ptr %1, i64 %47
  %49 = getelementptr inbounds nuw i32, ptr %48, i64 %44
  %wide.trip.count43 = zext nneg i32 %3 to i64
  br label %.preheader.us

.preheader.us:                                    ; preds = %.preheader.us.preheader, %._crit_edge.us24
  %.0.i.i21.us = phi ptr [ %68, %._crit_edge.us24 ], [ %49, %.preheader.us.preheader ]
  %.041.i.i20.us = phi ptr [ %66, %._crit_edge.us24 ], [ %48, %.preheader.us.preheader ]
  %.042.i.i19.us = phi ptr [ %67, %._crit_edge.us24 ], [ %45, %.preheader.us.preheader ]
  %.043.i.i18.us = phi ptr [ %65, %._crit_edge.us24 ], [ %1, %.preheader.us.preheader ]
  %.044.i.i17.us = phi i32 [ %69, %._crit_edge.us24 ], [ 0, %.preheader.us.preheader ]
  %.046.i.i16.us = phi ptr [ %64, %._crit_edge.us24 ], [ %6, %.preheader.us.preheader ]
  %invariant.gep.us22 = getelementptr i32, ptr %.046.i.i16.us, i64 %8
  br label %50

50:                                               ; preds = %.preheader.us, %50
  %indvars.iv40 = phi i64 [ 0, %.preheader.us ], [ %indvars.iv.next41, %50 ]
  %indvars.iv40.tr = trunc i64 %indvars.iv40 to i32
  %51 = shl i32 %indvars.iv40.tr, 1
  %52 = sext i32 %51 to i64
  %53 = getelementptr inbounds i32, ptr %.046.i.i16.us, i64 %52
  %54 = load i32, ptr %53, align 4, !tbaa !13
  %55 = getelementptr inbounds nuw i32, ptr %.043.i.i18.us, i64 %indvars.iv40
  store i32 %54, ptr %55, align 4, !tbaa !13
  %56 = getelementptr i8, ptr %53, i64 4
  %57 = load i32, ptr %56, align 4, !tbaa !13
  %58 = getelementptr inbounds nuw i32, ptr %.042.i.i19.us, i64 %indvars.iv40
  store i32 %57, ptr %58, align 4, !tbaa !13
  %gep.us23 = getelementptr i32, ptr %invariant.gep.us22, i64 %52
  %59 = load i32, ptr %gep.us23, align 4, !tbaa !13
  %60 = getelementptr inbounds nuw i32, ptr %.041.i.i20.us, i64 %indvars.iv40
  store i32 %59, ptr %60, align 4, !tbaa !13
  %61 = getelementptr i8, ptr %gep.us23, i64 4
  %62 = load i32, ptr %61, align 4, !tbaa !13
  %63 = getelementptr inbounds nuw i32, ptr %.0.i.i21.us, i64 %indvars.iv40
  store i32 %62, ptr %63, align 4, !tbaa !13
  %indvars.iv.next41 = add nuw nsw i64 %indvars.iv40, 1
  %exitcond44.not = icmp eq i64 %indvars.iv.next41, %wide.trip.count43
  br i1 %exitcond44.not, label %._crit_edge.us24, label %50, !llvm.loop !28

._crit_edge.us24:                                 ; preds = %50
  %64 = getelementptr inbounds i8, ptr %.046.i.i16.us, i64 %.idx.i.i
  %65 = getelementptr inbounds i32, ptr %.043.i.i18.us, i64 %2
  %66 = getelementptr inbounds i32, ptr %.041.i.i20.us, i64 %2
  %67 = getelementptr inbounds i32, ptr %.042.i.i19.us, i64 %2
  %68 = getelementptr inbounds i32, ptr %.0.i.i21.us, i64 %2
  %69 = add nuw nsw i32 %.044.i.i17.us, 1
  %exitcond45.not = icmp eq i32 %69, %4
  br i1 %exitcond45.not, label %dwt_haar.exit, label %.preheader.us, !llvm.loop !29

dwt_haar.exit:                                    ; preds = %._crit_edge.us24, %.preheader.lr.ph, %._crit_edge13
  ret void
}